; ModuleID = 'source-C-CXX/56/1565.c'
source_filename = "source-C-CXX/56/1565.c"
target datalayout = "e-m:e-p270:32:32-p271:32:32-p272:64:64-i64:64-f80:128-n8:16:32:64-S128"
target triple = "x86_64-pc-linux-gnu"

@.str = private unnamed_addr constant [3 x i8] c"%d\00", align 1
@.str.1 = private unnamed_addr constant [3 x i8] c"%s\00", align 1

; Function Attrs: nofree nounwind sspstrong uwtable
define dso_local i32 @main() local_unnamed_addr #0 {
  %1 = alloca i32, align 4
  %2 = alloca [1000 x [100 x i8]], align 16
  %3 = alloca [1000 x [100 x i8]], align 16
  %4 = bitcast i32* %1 to i8*
  call void @llvm.lifetime.start.p0i8(i64 4, i8* nonnull %4) #6
  %5 = getelementptr inbounds [1000 x [100 x i8]], [1000 x [100 x i8]]* %2, i64 0, i64 0, i64 0
  call void @llvm.lifetime.start.p0i8(i64 100000, i8* nonnull %5) #6
  %6 = getelementptr inbounds [1000 x [100 x i8]], [1000 x [100 x i8]]* %3, i64 0, i64 0, i64 0
  call void @llvm.lifetime.start.p0i8(i64 100000, i8* nonnull %6) #6
  %7 = call i32 (i8*, ...) @__isoc99_scanf(i8* getelementptr inbounds ([3 x i8], [3 x i8]* @.str, i64 0, i64 0), i32* nonnull %1)
  %8 = load i32, i32* %1, align 4, !tbaa !5
  %9 = icmp sgt i32 %8, 0
  br i1 %9, label %14, label %55

10:                                               ; preds = %14
  %11 = icmp sgt i32 %19, 0
  br i1 %11, label %12, label %55

12:                                               ; preds = %10
  %13 = zext i32 %19 to i64
  br label %23

14:                                               ; preds = %0, %14
  %15 = phi i64 [ %18, %14 ], [ 0, %0 ]
  %16 = getelementptr inbounds [1000 x [100 x i8]], [1000 x [100 x i8]]* %2, i64 0, i64 %15, i64 0
  %17 = call i32 (i8*, ...) @__isoc99_scanf(i8* getelementptr inbounds ([3 x i8], [3 x i8]* @.str.1, i64 0, i64 0), i8* nonnull %16)
  %18 = add nuw nsw i64 %15, 1
  %19 = load i32, i32* %1, align 4, !tbaa !5
  %20 = sext i32 %19 to i64
  %21 = icmp slt i64 %18, %20
  br i1 %21, label %14, label %10, !llvm.loop !9

22:                                               ; preds = %44
  br i1 %11, label %47, label %55

23:                                               ; preds = %12, %44
  %24 = phi i64 [ 0, %12 ], [ %45, %44 ]
  %25 = getelementptr [1000 x [100 x i8]], [1000 x [100 x i8]]* %3, i64 0, i64 %24, i64 0
  %26 = getelementptr [1000 x [100 x i8]], [1000 x [100 x i8]]* %2, i64 0, i64 %24, i64 0
  %27 = call i64 @strlen(i8* noundef nonnull %26) #7
  %28 = trunc i64 %27 to i32
  %29 = add i32 %28, -2
  %30 = sext i32 %29 to i64
  %31 = getelementptr inbounds [1000 x [100 x i8]], [1000 x [100 x i8]]* %2, i64 0, i64 %24, i64 %30
  %32 = load i8, i8* %31, align 1, !tbaa !11
  switch i8 %32, label %33 [
    i8 108, label %38
    i8 101, label %38
  ]

33:                                               ; preds = %23
  %34 = icmp sgt i32 %28, 3
  br i1 %34, label %35, label %44

35:                                               ; preds = %33
  %36 = add i64 %27, 4294967293
  %37 = and i64 %36, 4294967295
  br label %42

38:                                               ; preds = %23, %23
  %39 = icmp sgt i32 %28, 2
  br i1 %39, label %40, label %44

40:                                               ; preds = %38
  %41 = zext i32 %29 to i64
  br label %42

42:                                               ; preds = %35, %40
  %43 = phi i64 [ %41, %40 ], [ %37, %35 ]
  call void @llvm.memcpy.p0i8.p0i8.i64(i8* align 4 %25, i8* align 4 %26, i64 %43, i1 false)
  br label %44

44:                                               ; preds = %42, %38, %33
  %45 = add nuw nsw i64 %24, 1
  %46 = icmp eq i64 %45, %13
  br i1 %46, label %22, label %23, !llvm.loop !12

47:                                               ; preds = %22, %47
  %48 = phi i64 [ %51, %47 ], [ 0, %22 ]
  %49 = getelementptr inbounds [1000 x [100 x i8]], [1000 x [100 x i8]]* %3, i64 0, i64 %48, i64 0
  %50 = call i32 @puts(i8* nonnull %49)
  %51 = add nuw nsw i64 %48, 1
  %52 = load i32, i32* %1, align 4, !tbaa !5
  %53 = sext i32 %52 to i64
  %54 = icmp slt i64 %51, %53
  br i1 %54, label %47, label %55, !llvm.loop !13

55:                                               ; preds = %47, %10, %0, %22
  call void @llvm.lifetime.end.p0i8(i64 100000, i8* nonnull %6) #6
  call void @llvm.lifetime.end.p0i8(i64 100000, i8* nonnull %5) #6
  call void @llvm.lifetime.end.p0i8(i64 4, i8* nonnull %4) #6
  ret i32 0
}

; Function Attrs: argmemonly mustprogress nofree nosync nounwind willreturn
declare void @llvm.lifetime.start.p0i8(i64 immarg, i8* nocapture) #1

; Function Attrs: nofree nounwind
declare noundef i32 @__isoc99_scanf(i8* nocapture noundef readonly, ...) local_unnamed_addr #2

; Function Attrs: argmemonly mustprogress nofree nounwind readonly willreturn
declare i64 @strlen(i8* nocapture) local_unnamed_addr #3

; Function Attrs: argmemonly mustprogress nofree nosync nounwind willreturn
declare void @llvm.lifetime.end.p0i8(i64 immarg, i8* nocapture) #1

; Function Attrs: nofree nounwind
declare noundef i32 @puts(i8* nocapture noundef readonly) local_unnamed_addr #4

; Function Attrs: argmemonly nofree nounwind willreturn
declare void @llvm.memcpy.p0i8.p0i8.i64(i8* noalias nocapture writeonly, i8* noalias nocapture readonly, i64, i1 immarg) #5


!llvm.module.flags = !{!0, !1, !2, !3}
!llvm.ident = !{!4}

!0 = !{i32 1, !"wchar_size", i32 4}
!1 = !{i32 7, !"PIC Level", i32 2}
!2 = !{i32 7, !"PIE Level", i32 2}
!3 = !{i32 7, !"uwtable", i32 1}
!4 = !{!"clang version 13.0.0"}
!5 = !{!6, !6, i64 0}
!6 = !{!"int", !7, i64 0}
!7 = !{!"omnipotent char", !8, i64 0}
!8 = !{!"Simple C/C++ TBAA"}
!9 = distinct !{!9, !10}
!10 = !{!"llvm.loop.mustprogress"}
!11 = !{!7, !7, i64 0}
!12 = distinct !{!12, !10}
!13 = distinct !{!13, !10}
